target datalayout = "e-m:e-p270:32:32-p271:32:32-p272:64:64-i64:64-i128:128-f80:128-n8:16:32:64-S128"
target triple = "x86_64-pc-linux-gnu"

%struct.dt_control_crawler_gui_t = type { ptr, ptr, ptr, ptr, ptr }
%struct._GtkTreeIter = type { i32, ptr, ptr, ptr }
%struct._GList = type { ptr, ptr, ptr }

; Function Attrs: nounwind uwtable
define internal void @_delete_selected_rows(ptr noundef %0) #0 {
  %2 = alloca ptr, align 8
  %3 = alloca ptr, align 8
  %4 = alloca ptr, align 8
  %5 = alloca ptr, align 8
  %6 = alloca ptr, align 8
  %7 = alloca %struct._GtkTreeIter, align 8
  store ptr %0, ptr %2, align 8, !tbaa !76
  call void @llvm.lifetime.start.p0(i64 8, ptr %3) #11
  %8 = load ptr, ptr %2, align 8, !tbaa !76
  %9 = getelementptr inbounds nuw %struct.dt_control_crawler_gui_t, ptr %8, i32 0, i32 4
  %10 = load ptr, ptr %9, align 8, !tbaa !85
  store ptr %10, ptr %3, align 8, !tbaa !6
  call void @llvm.lifetime.start.p0(i64 8, ptr %4) #11
  %11 = load ptr, ptr %2, align 8, !tbaa !76
  %12 = getelementptr inbounds nuw %struct.dt_control_crawler_gui_t, ptr %11, i32 0, i32 1
  %13 = load ptr, ptr %12, align 8, !tbaa !92
  store ptr %13, ptr %4, align 8, !tbaa !87
  call void @llvm.lifetime.start.p0(i64 8, ptr %5) #11
  %14 = load ptr, ptr %3, align 8, !tbaa !6
  store ptr %14, ptr %5, align 8, !tbaa !6
  br label %15

15:                                               ; preds = %46, %1
  %16 = load ptr, ptr %5, align 8, !tbaa !6
  %17 = icmp ne ptr %16, null
  br i1 %17, label %19, label %18

18:                                               ; preds = %15
  call void @llvm.lifetime.end.p0(i64 8, ptr %5) #11
  br label %48

19:                                               ; preds = %15
  call void @llvm.lifetime.start.p0(i64 8, ptr %6) #11
  %20 = load ptr, ptr %5, align 8, !tbaa !6
  %21 = getelementptr inbounds nuw %struct._GList, ptr %20, i32 0, i32 0
  %22 = load ptr, ptr %21, align 8, !tbaa !93
  %23 = call ptr @gtk_tree_row_reference_get_path(ptr noundef %22)
  store ptr %23, ptr %6, align 8, !tbaa !88
  %24 = load ptr, ptr %6, align 8, !tbaa !88
  %25 = icmp ne ptr %24, null
  br i1 %25, label %26, label %37

26:                                               ; preds = %19
  call void @llvm.lifetime.start.p0(i64 32, ptr %7) #11
  %27 = load ptr, ptr %4, align 8, !tbaa !87
  %28 = load ptr, ptr %6, align 8, !tbaa !88
  %29 = call i32 @gtk_tree_model_get_iter(ptr noundef %27, ptr noundef %7, ptr noundef %28)
  %30 = icmp ne i32 %29, 0
  br i1 %30, label %31, label %36

31:                                               ; preds = %26
  %32 = load ptr, ptr %4, align 8, !tbaa !87
  %33 = call i64 @gtk_list_store_get_type() #15
  %34 = call ptr @g_type_check_instance_cast(ptr noundef %32, i64 noundef %33)
  %35 = call i32 @gtk_list_store_remove(ptr noundef %34, ptr noundef %7)
  br label %36

36:                                               ; preds = %31, %26
  call void @llvm.lifetime.end.p0(i64 32, ptr %7) #11
  br label %37

37:                                               ; preds = %36, %19
  call void @llvm.lifetime.end.p0(i64 8, ptr %6) #11
  br label %38

38:                                               ; preds = %37
  %39 = load ptr, ptr %5, align 8, !tbaa !6
  %40 = icmp ne ptr %39, null
  br i1 %40, label %41, label %45

41:                                               ; preds = %38
  %42 = load ptr, ptr %5, align 8, !tbaa !6
  %43 = getelementptr inbounds nuw %struct._GList, ptr %42, i32 0, i32 1
  %44 = load ptr, ptr %43, align 8, !tbaa !95
  br label %46

45:                                               ; preds = %38
  br label %46

46:                                               ; preds = %45, %41
  %47 = phi ptr [ %44, %41 ], [ null, %45 ]
  store ptr %47, ptr %5, align 8, !tbaa !6
  br label %15

48:                                               ; preds = %18
  %49 = load ptr, ptr %3, align 8, !tbaa !6
  call void @g_list_foreach(ptr noundef %49, ptr noundef @gtk_tree_row_reference_free, ptr noundef null)
  %50 = load ptr, ptr %3, align 8, !tbaa !6
  call void @g_list_free(ptr noundef %50)
  call void @llvm.lifetime.end.p0(i64 8, ptr %4) #11
  call void @llvm.lifetime.end.p0(i64 8, ptr %3) #11
  ret void
}