; Function Attrs: nounwind uwtable
define internal fastcc void @_delete_selected_rows(ptr %.8.val, ptr %.32.val) unnamed_addr #0 {
  %1 = alloca %struct._GtkTreeIter, align 8
  %.not1 = icmp eq ptr %.32.val, null
  br i1 %.not1, label %._crit_edge, label %.lr.ph

._crit_edge:                                      ; preds = %11, %0
  call void @g_list_foreach(ptr noundef %.32.val, ptr noundef nonnull @gtk_tree_row_reference_free, ptr noundef null) #13
  call void @g_list_free(ptr noundef %.32.val) #13
  ret void

.lr.ph:                                           ; preds = %0, %11
  %.02 = phi ptr [ %13, %11 ], [ %.32.val, %0 ]
  %2 = load ptr, ptr %.02, align 8, !tbaa !76
  %3 = call ptr @gtk_tree_row_reference_get_path(ptr noundef %2) #13
  %.not14 = icmp eq ptr %3, null
  br i1 %.not14, label %11, label %4

4:                                                ; preds = %.lr.ph
  call void @llvm.lifetime.start.p0(i64 32, ptr nonnull %1) #13
  %5 = call i32 @gtk_tree_model_get_iter(ptr noundef %.8.val, ptr noundef nonnull %1, ptr noundef nonnull %3) #13
  %.not15 = icmp eq i32 %5, 0
  br i1 %.not15, label %10, label %6

6:                                                ; preds = %4
  %7 = tail call i64 @gtk_list_store_get_type() #18
  %8 = call ptr @g_type_check_instance_cast(ptr noundef %.8.val, i64 noundef %7) #13
  %9 = call i32 @gtk_list_store_remove(ptr noundef %8, ptr noundef nonnull %1) #13
  br label %10

10:                                               ; preds = %6, %4
  call void @llvm.lifetime.end.p0(i64 32, ptr nonnull %1) #13
  br label %11

11:                                               ; preds = %10, %.lr.ph
  %12 = getelementptr inbounds nuw i8, ptr %.02, i64 8
  %13 = load ptr, ptr %12, align 8, !tbaa !78
  %.not = icmp eq ptr %13, null
  br i1 %.not, label %._crit_edge, label %.lr.ph
}